(lp0
(dp1
S'titleSimm'
p2
F0.0
sS'coherence'
p3
F0.4025
sS'tfIdf'
p4
F0.0654
sS'tfIsf'
p5
F0.2252
sS'length'
p6
F0.8214
sS'position'
p7
F0.4
sa(dp8
g2
F0.0
sg3
F0.2427
sg4
F0.0512
sg5
F0.3495
sg6
F0.2143
sg7
F0.5
sa(dp9
g2
F0.0
sg3
F0.418
sg4
F0.0
sg5
F0.3808
sg6
F0.2143
sg7
F0.6
sa(dp10
g2
F0.0
sg3
F0.0
sg4
F0.0
sg5
F0.0
sg6
F0.0357
sg7
F0.7
sa(dp11
g2
I0
sg3
F0.4972
sg4
F0.0513
sg5
F0.2988
sg6
F0.8571
sg7
F0.1
sa(dp12
g2
F0.0
sg3
F0.4685
sg4
F0.013
sg5
F0.5241
sg6
F0.2857
sg7
F0.2
sa(dp13
g2
F0.0
sg3
F0.4656
sg4
F0.0518
sg5
F0.2411
sg6
F1.0
sg7
F0.3
sa(dp14
g2
F0.0
sg3
F0.5378
sg4
F0.0258
sg5
F0.1429
sg6
F0.5357
sg7
F0.5556
sa(dp15
g2
F0.0
sg3
F0.5103
sg4
F0.0282
sg5
F0.1247
sg6
F0.3571
sg7
F0.6111
sa(dp16
g2
F0.0
sg3
F0.6101
sg4
F0.0289
sg5
F0.1692
sg6
F0.3214
sg7
F0.6667
sa(dp17
g2
F0.0
sg3
F0.2598
sg4
F0.0424
sg5
F0.1997
sg6
F0.2143
sg7
F0.7222
sa(dp18
g2
F0.0
sg3
F0.2427
sg4
F0.0
sg5
F0.466
sg6
F0.0714
sg7
F0.8
sa(dp19
g2
F0.0
sg3
F0.2973
sg4
F0.0
sg5
F0.5242
sg6
F0.1071
sg7
F0.9
sa(dp20
g2
F0.0
sg3
F0.3674
sg4
F0.081
sg5
F0.0635
sg6
F0.4286
sg7
F0.8889
sa(dp21
g2
F0.0
sg3
F0.0
sg4
F0.1056
sg5
F0.0
sg6
F0.3929
sg7
F0.9444
sa(dp22
g2
F0.0
sg3
F0.2524
sg4
F0.0167
sg5
F0.1151
sg6
F0.25
sg7
F0.3333
sa(dp23
g2
F0.0
sg3
F0.3848
sg4
F0.0251
sg5
F0.0747
sg6
F0.2143
sg7
F0.3889
sa(dp24
g2
F0.0
sg3
F0.1399
sg4
F0.0
sg5
F0.0444
sg6
F0.1429
sg7
F0.2222
sa(dp25
g2
F0.0
sg3
F0.0
sg4
F0.1193
sg5
F0.0
sg6
F0.0357
sg7
F1.0
sa(dp26
g2
F0.0
sg3
F0.3873
sg4
F0.0072
sg5
F0.2406
sg6
F0.1786
sg7
F0.1111
sa(dp27
g2
F0.0
sg3
F0.5395
sg4
F0.0
sg5
F0.2368
sg6
F0.3929
sg7
F0.1667
sa(dp28
g2
I0
sg3
F0.5132
sg4
F0.0
sg5
F0.233
sg6
F0.05
sg7
F0.1429
sa(dp29
g2
F0.0
sg3
F0.5964
sg4
F0.0148
sg5
F0.1864
sg6
F0.5357
sg7
F0.0556
sa(dp30
g2
F0.0
sg3
F0.3305
sg4
F0.0
sg5
F0.3495
sg6
F0.0357
sg7
F0.375
sa(dp31
g2
F0.0
sg3
F0.6501
sg4
F0.0401
sg5
F0.2168
sg6
F0.4643
sg7
F0.25
sa(dp32
g2
I0
sg3
F0.4673
sg4
F0.043
sg5
F0.233
sg6
F0.1786
sg7
F0.125
sa(dp33
g2
F0.0
sg3
F0.0
sg4
F0.1193
sg5
F0.0
sg6
F0.0714
sg7
F0.875
sa(dp34
g2
F0.0
sg3
F0.0
sg4
F0.1193
sg5
F0.0
sg6
F0.0714
sg7
F0.75
sa(dp35
g2
F0.0
sg3
F0.5359
sg4
F0.0
sg5
F0.1151
sg6
F0.25
sg7
F0.625
sa(dp36
g2
F0.0
sg3
F0.4377
sg4
F0.0
sg5
F0.2406
sg6
F0.1786
sg7
F0.5
sa(dp37
g2
I0
sg3
F0.1744
sg4
F0.0201
sg5
F0.0609
sg6
F0.325
sg7
F0.4167
sa(dp38
g2
I0
sg3
F0.2146
sg4
F0.0219
sg5
F0.0874
sg6
F0.225
sg7
F0.3333
sa(dp39
g2
I0
sg3
F0.5365
sg4
F0.056
sg5
F0.1398
sg6
F0.1
sg7
F0.5833
sa(dp40
g2
I0
sg3
F0.568
sg4
F0.0588
sg5
F0.0906
sg6
F1.0
sg7
F0.5
sa(dp41
g2
I0
sg3
F0.2146
sg4
F0.0301
sg5
F0.1398
sg6
F0.1
sg7
F0.0833
sa(dp42
g2
F0.0
sg3
F0.5921
sg4
F0.0254
sg5
F0.2046
sg6
F0.2
sg7
F0.5
sa(dp43
g2
F0.0
sg3
F0.1716
sg4
F0.0
sg5
F0.3495
sg6
F0.0357
sg7
F1.0
sa(dp44
g2
I0
sg3
F0.3583
sg4
F0.0241
sg5
F0.1023
sg6
F0.2
sg7
F0.1667
sa(dp45
g2
F0.0
sg3
F0.2481
sg4
F0.0
sg5
F0.466
sg6
F0.05
sg7
F0.8
sa(dp46
g2
F0.0
sg3
F0.3039
sg4
F0.0
sg5
F0.5242
sg6
F0.075
sg7
F0.9
sa(dp47
g2
I0
sg3
F0.0
sg4
F0.0
sg5
F0.0
sg6
F0.025
sg7
F0.75
sa(dp48
g2
I0
sg3
F0.5866
sg4
F0.0195
sg5
F0.3313
sg6
F0.15
sg7
F0.6667
sa(dp49
g2
F0.0
sg3
F0.2939
sg4
F0.0201
sg5
F0.0999
sg6
F0.2857
sg7
F0.4444
sa(dp50
g2
I0
sg3
F0.3717
sg4
F0.0
sg5
F0.5242
sg6
F0.075
sg7
F0.9167
sa(dp51
g2
F0.0
sg3
F0.3475
sg4
F0.0215
sg5
F0.0665
sg6
F0.4286
sg7
F0.5
sa(dp52
g2
I0
sg3
F0.6015
sg4
F0.0251
sg5
F0.1286
sg6
F0.45
sg7
F0.1
sa(dp53
g2
F0.0
sg3
F0.0
sg4
F0.0265
sg5
F0.0
sg6
F0.0357
sg7
F0.7778
sa(dp54
g2
F0.0
sg3
F0.6704
sg4
F0.0314
sg5
F0.0641
sg6
F1.0
sg7
F0.2
sa(dp55
g2
F0.0
sg3
F0.0
sg4
F0.053
sg5
F0.0
sg6
F0.0357
sg7
F0.8333
sa(dp56
g2
F0.0
sg3
F0.1755
sg4
F0.0
sg5
F0.3495
sg6
F0.025
sg7
F1.0
sa(dp57
g2
F0.0
sg3
F0.5722
sg4
F0.0248
sg5
F0.1877
sg6
F0.5
sg7
F0.3
sa(dp58
g2
I0
sg3
F0.2146
sg4
F0.0
sg5
F0.3495
sg6
F0.025
sg7
F1.0
sa(dp59
g2
I0
sg3
F0.3035
sg4
F0.0191
sg5
F0.3495
sg6
F0.075
sg7
F0.8333
sa(dp60
g2
F0.0
sg3
F0.0
sg4
F0.0199
sg5
F0.0
sg6
F0.025
sg7
F0.4
sa(dp61
g2
F0.0
sg3
F0.147
sg4
F0.0318
sg5
F0.1747
sg6
F0.1429
sg7
F1.0
sa(dp62
g2
I0
sg3
F1.0
sg4
F0.0
sg5
F0.3495
sg6
F0.025
sg7
F1.0
sa(dp63
g2
I0
sg3
F0.0
sg4
F0.0502
sg5
F0.0
sg6
F0.025
sg7
F1.0
sa(dp64
g2
F0.0
sg3
F0.7334
sg4
F0.0378
sg5
F0.1387
sg6
F0.425
sg7
F0.6
sa(dp65
g2
I0
sg3
F0.2922
sg4
F0.0795
sg5
F0.0796
sg6
F0.1
sg7
F0.8571
sa(dp66
g2
F0.0
sg3
F0.0
sg4
F0.0
sg5
F0.0
sg6
F0.025
sg7
F0.7
sa(dp67
g2
I0
sg3
F0.0
sg4
F0.0398
sg5
F0.0
sg6
F0.05
sg7
F0.7143
sa(dp68
g2
I0
sg3
F0.0
sg4
F0.0795
sg5
F0.0
sg6
F0.05
sg7
F0.5714
sa(dp69
g2
F0.0
sg3
F0.4409
sg4
F0.0201
sg5
F0.1747
sg6
F0.1071
sg7
F0.2778
sa(dp70
g2
I0
sg3
F0.1605
sg4
F0.0201
sg5
F0.0654
sg6
F0.175
sg7
F0.25
sa(dp71
g2
I0
sg3
F0.5878
sg4
F0.0
sg5
F0.1023
sg6
F0.2
sg7
F0.4286
sa(dp72
g2
I0
sg3
F0.6029
sg4
F0.0
sg5
F0.2062
sg6
F0.15
sg7
F0.2857
sa.